target datalayout = "e-m:e-p270:32:32-p271:32:32-p272:64:64-i64:64-i128:128-f80:128-n8:16:32:64-S128"
target triple = "x86_64-pc-linux-gnu"

@.str = private unnamed_addr constant [9 x i8] c"%s(): %s\00", align 1
@.str.1 = private unnamed_addr constant [17 x i8] c"Invalid argument\00", align 1
@tj3GetScalingFactors.FUNCTION_NAME = internal constant [21 x i8] c"tj3GetScalingFactors\00", align 16

; Function Attrs: nounwind uwtable
define ptr @tj3GetScalingFactors(ptr noundef %0) #0 {
  %2 = alloca ptr, align 8
  %3 = alloca ptr, align 8
  store ptr %0, ptr %2, align 8
  store ptr @sf, ptr %3, align 8
  %4 = load ptr, ptr %2, align 8
  %5 = icmp eq ptr %4, null
  br i1 %5, label %6, label %10

6:                                                ; preds = %1
  %7 = call align 16 ptr @llvm.threadlocal.address.p0(ptr align 16 @errStr)
  %8 = getelementptr inbounds [200 x i8], ptr %7, i64 0, i64 0
  %9 = call i32 (ptr, i64, ptr, ...) @snprintf(ptr noundef %8, i64 noundef 200, ptr noundef @.str, ptr noundef @tj3GetScalingFactors.FUNCTION_NAME, ptr noundef @.str.1) #11
  store ptr null, ptr %3, align 8
  br label %12

10:                                               ; preds = %1
  %11 = load ptr, ptr %2, align 8
  store i32 16, ptr %11, align 4
  br label %12

12:                                               ; preds = %10, %6
  %13 = load ptr, ptr %3, align 8
  ret ptr %13
}

; Function Attrs: nounwind uwtable
define ptr @tjGetScalingFactors(ptr noundef %0) #0 {
  %2 = alloca ptr, align 8
  store ptr %0, ptr %2, align 8
  %3 = load ptr, ptr %2, align 8
  %4 = call ptr @tj3GetScalingFactors(ptr noundef %3)
  ret ptr %4
}