; Function Attrs: nofree nounwind uwtable
define noundef ptr @tjGetScalingFactors(ptr noundef writeonly %0) local_unnamed_addr #6 {
  %2 = icmp eq ptr %0, null
  br i1 %2, label %3, label %6

3:                                                ; preds = %1
  %4 = tail call align 16 ptr @llvm.threadlocal.address.p0(ptr align 16 @errStr)
  %5 = tail call i32 (ptr, i64, ptr, ...) @snprintf(ptr noundef nonnull dereferenceable(1) %4, i64 noundef 200, ptr noundef nonnull @.str, ptr noundef nonnull @tj3GetScalingFactors.FUNCTION_NAME, ptr noundef nonnull @.str.1) #26
  br label %tj3GetScalingFactors.exit

6:                                                ; preds = %1
  store i32 16, ptr %0, align 4
  br label %tj3GetScalingFactors.exit

tj3GetScalingFactors.exit:                        ; preds = %3, %6
  %.0.i = phi ptr [ null, %3 ], [ @sf, %6 ]
  ret ptr %.0.i
}